target datalayout = "e-m:e-p270:32:32-p271:32:32-p272:64:64-i64:64-i128:128-f80:128-n8:16:32:64-S128"
target triple = "x86_64-pc-linux-gnu"

%class.btMatrix3x3 = type { [3 x %class.btVector3] }
%class.btVector3 = type { [4 x float] }

; Function Attrs: inlinehint mustprogress nounwind uwtable
define linkonce_odr dso_local noundef ptr @_ZNK9btVector3cvPKfEv(ptr noundef nonnull align 4 dereferenceable(16) %0) #4 comdat align 2 {
  %2 = alloca ptr, align 8
  store ptr %0, ptr %2, align 8, !tbaa !52
  %3 = load ptr, ptr %2, align 8
  %4 = getelementptr inbounds nuw %class.btVector3, ptr %3, i32 0, i32 0
  %5 = getelementptr inbounds [4 x float], ptr %4, i64 0, i64 0
  ret ptr %5
}

; Function Attrs: inlinehint mustprogress nounwind uwtable
define linkonce_odr dso_local noundef nonnull align 4 dereferenceable(16) ptr @_ZNK11btMatrix3x3ixEi(ptr noundef nonnull align 4 dereferenceable(48) %0, i32 noundef %1) #4 comdat align 2 {
  %3 = alloca ptr, align 8
  %4 = alloca i32, align 4
  store ptr %0, ptr %3, align 8, !tbaa !57
  store i32 %1, ptr %4, align 4, !tbaa !9
  %5 = load ptr, ptr %3, align 8
  %6 = getelementptr inbounds nuw %class.btMatrix3x3, ptr %5, i32 0, i32 0
  %7 = load i32, ptr %4, align 4, !tbaa !9
  %8 = sext i32 %7 to i64
  %9 = getelementptr inbounds [3 x %class.btVector3], ptr %6, i64 0, i64 %8
  ret ptr %9
}

; Function Attrs: mustprogress uwtable
define linkonce_odr dso_local noundef nonnull align 4 dereferenceable(4) ptr @_ZNK24btInverseDynamicsBullet35mat33clEii(ptr noundef nonnull align 4 dereferenceable(48) %0, i32 noundef %1, i32 noundef %2) #2 comdat align 2 {
  %4 = alloca ptr, align 8
  %5 = alloca i32, align 4
  %6 = alloca i32, align 4
  store ptr %0, ptr %4, align 8, !tbaa !22
  store i32 %1, ptr %5, align 4, !tbaa !9
  store i32 %2, ptr %6, align 4, !tbaa !9
  %7 = load ptr, ptr %4, align 8
  %8 = load i32, ptr %5, align 4, !tbaa !9
  %9 = call noundef nonnull align 4 dereferenceable(16) ptr @_ZNK11btMatrix3x3ixEi(ptr noundef nonnull align 4 dereferenceable(48) %7, i32 noundef %8)
  %10 = call noundef ptr @_ZNK9btVector3cvPKfEv(ptr noundef nonnull align 4 dereferenceable(16) %9)
  %11 = load i32, ptr %6, align 4, !tbaa !9
  %12 = sext i32 %11 to i64
  %13 = getelementptr inbounds float, ptr %10, i64 %12
  ret ptr %13
}

; Function Attrs: mustprogress uwtable
define dso_local noundef zeroext i1 @_ZN24btInverseDynamicsBullet322isPositiveSemiDefiniteERKNS_5mat33E(ptr noundef nonnull align 4 dereferenceable(48) %0) #2 {
  %2 = alloca i1, align 1
  %3 = alloca ptr, align 8
  store ptr %0, ptr %3, align 8, !tbaa !22
  %4 = load ptr, ptr %3, align 8, !tbaa !22
  %5 = call noundef nonnull align 4 dereferenceable(4) ptr @_ZNK24btInverseDynamicsBullet35mat33clEii(ptr noundef nonnull align 4 dereferenceable(48) %4, i32 noundef 0, i32 noundef 0)
  %6 = load float, ptr %5, align 4, !tbaa !14
  %7 = fcmp olt float %6, 0.000000e+00
  br i1 %7, label %8, label %9

8:                                                ; preds = %1
  store i1 false, ptr %2, align 1
  br label %89

9:                                                ; preds = %1
  %10 = load ptr, ptr %3, align 8, !tbaa !22
  %11 = call noundef nonnull align 4 dereferenceable(4) ptr @_ZNK24btInverseDynamicsBullet35mat33clEii(ptr noundef nonnull align 4 dereferenceable(48) %10, i32 noundef 0, i32 noundef 0)
  %12 = load float, ptr %11, align 4, !tbaa !14
  %13 = load ptr, ptr %3, align 8, !tbaa !22
  %14 = call noundef nonnull align 4 dereferenceable(4) ptr @_ZNK24btInverseDynamicsBullet35mat33clEii(ptr noundef nonnull align 4 dereferenceable(48) %13, i32 noundef 1, i32 noundef 1)
  %15 = load float, ptr %14, align 4, !tbaa !14
  %16 = load ptr, ptr %3, align 8, !tbaa !22
  %17 = call noundef nonnull align 4 dereferenceable(4) ptr @_ZNK24btInverseDynamicsBullet35mat33clEii(ptr noundef nonnull align 4 dereferenceable(48) %16, i32 noundef 0, i32 noundef 1)
  %18 = load float, ptr %17, align 4, !tbaa !14
  %19 = load ptr, ptr %3, align 8, !tbaa !22
  %20 = call noundef nonnull align 4 dereferenceable(4) ptr @_ZNK24btInverseDynamicsBullet35mat33clEii(ptr noundef nonnull align 4 dereferenceable(48) %19, i32 noundef 1, i32 noundef 0)
  %21 = load float, ptr %20, align 4, !tbaa !14
  %22 = fmul float %18, %21
  %23 = fneg float %22
  %24 = call float @llvm.fmuladd.f32(float %12, float %15, float %23)
  %25 = fcmp olt float %24, 0.000000e+00
  br i1 %25, label %26, label %27

26:                                               ; preds = %9
  store i1 false, ptr %2, align 1
  br label %89

27:                                               ; preds = %9
  %28 = load ptr, ptr %3, align 8, !tbaa !22
  %29 = call noundef nonnull align 4 dereferenceable(4) ptr @_ZNK24btInverseDynamicsBullet35mat33clEii(ptr noundef nonnull align 4 dereferenceable(48) %28, i32 noundef 0, i32 noundef 0)
  %30 = load float, ptr %29, align 4, !tbaa !14
  %31 = load ptr, ptr %3, align 8, !tbaa !22
  %32 = call noundef nonnull align 4 dereferenceable(4) ptr @_ZNK24btInverseDynamicsBullet35mat33clEii(ptr noundef nonnull align 4 dereferenceable(48) %31, i32 noundef 1, i32 noundef 1)
  %33 = load float, ptr %32, align 4, !tbaa !14
  %34 = load ptr, ptr %3, align 8, !tbaa !22
  %35 = call noundef nonnull align 4 dereferenceable(4) ptr @_ZNK24btInverseDynamicsBullet35mat33clEii(ptr noundef nonnull align 4 dereferenceable(48) %34, i32 noundef 2, i32 noundef 2)
  %36 = load float, ptr %35, align 4, !tbaa !14
  %37 = load ptr, ptr %3, align 8, !tbaa !22
  %38 = call noundef nonnull align 4 dereferenceable(4) ptr @_ZNK24btInverseDynamicsBullet35mat33clEii(ptr noundef nonnull align 4 dereferenceable(48) %37, i32 noundef 1, i32 noundef 2)
  %39 = load float, ptr %38, align 4, !tbaa !14
  %40 = load ptr, ptr %3, align 8, !tbaa !22
  %41 = call noundef nonnull align 4 dereferenceable(4) ptr @_ZNK24btInverseDynamicsBullet35mat33clEii(ptr noundef nonnull align 4 dereferenceable(48) %40, i32 noundef 2, i32 noundef 1)
  %42 = load float, ptr %41, align 4, !tbaa !14
  %43 = fmul float %39, %42
  %44 = fneg float %43
  %45 = call float @llvm.fmuladd.f32(float %33, float %36, float %44)
  %46 = load ptr, ptr %3, align 8, !tbaa !22
  %47 = call noundef nonnull align 4 dereferenceable(4) ptr @_ZNK24btInverseDynamicsBullet35mat33clEii(ptr noundef nonnull align 4 dereferenceable(48) %46, i32 noundef 0, i32 noundef 1)
  %48 = load float, ptr %47, align 4, !tbaa !14
  %49 = load ptr, ptr %3, align 8, !tbaa !22
  %50 = call noundef nonnull align 4 dereferenceable(4) ptr @_ZNK24btInverseDynamicsBullet35mat33clEii(ptr noundef nonnull align 4 dereferenceable(48) %49, i32 noundef 1, i32 noundef 0)
  %51 = load float, ptr %50, align 4, !tbaa !14
  %52 = load ptr, ptr %3, align 8, !tbaa !22
  %53 = call noundef nonnull align 4 dereferenceable(4) ptr @_ZNK24btInverseDynamicsBullet35mat33clEii(ptr noundef nonnull align 4 dereferenceable(48) %52, i32 noundef 2, i32 noundef 2)
  %54 = load float, ptr %53, align 4, !tbaa !14
  %55 = load ptr, ptr %3, align 8, !tbaa !22
  %56 = call noundef nonnull align 4 dereferenceable(4) ptr @_ZNK24btInverseDynamicsBullet35mat33clEii(ptr noundef nonnull align 4 dereferenceable(48) %55, i32 noundef 1, i32 noundef 2)
  %57 = load float, ptr %56, align 4, !tbaa !14
  %58 = load ptr, ptr %3, align 8, !tbaa !22
  %59 = call noundef nonnull align 4 dereferenceable(4) ptr @_ZNK24btInverseDynamicsBullet35mat33clEii(ptr noundef nonnull align 4 dereferenceable(48) %58, i32 noundef 2, i32 noundef 0)
  %60 = load float, ptr %59, align 4, !tbaa !14
  %61 = fmul float %57, %60
  %62 = fneg float %61
  %63 = call float @llvm.fmuladd.f32(float %51, float %54, float %62)
  %64 = fmul float %48, %63
  %65 = fneg float %64
  %66 = call float @llvm.fmuladd.f32(float %30, float %45, float %65)
  %67 = load ptr, ptr %3, align 8, !tbaa !22
  %68 = call noundef nonnull align 4 dereferenceable(4) ptr @_ZNK24btInverseDynamicsBullet35mat33clEii(ptr noundef nonnull align 4 dereferenceable(48) %67, i32 noundef 0, i32 noundef 2)
  %69 = load float, ptr %68, align 4, !tbaa !14
  %70 = load ptr, ptr %3, align 8, !tbaa !22
  %71 = call noundef nonnull align 4 dereferenceable(4) ptr @_ZNK24btInverseDynamicsBullet35mat33clEii(ptr noundef nonnull align 4 dereferenceable(48) %70, i32 noundef 1, i32 noundef 0)
  %72 = load float, ptr %71, align 4, !tbaa !14
  %73 = load ptr, ptr %3, align 8, !tbaa !22
  %74 = call noundef nonnull align 4 dereferenceable(4) ptr @_ZNK24btInverseDynamicsBullet35mat33clEii(ptr noundef nonnull align 4 dereferenceable(48) %73, i32 noundef 2, i32 noundef 1)
  %75 = load float, ptr %74, align 4, !tbaa !14
  %76 = load ptr, ptr %3, align 8, !tbaa !22
  %77 = call noundef nonnull align 4 dereferenceable(4) ptr @_ZNK24btInverseDynamicsBullet35mat33clEii(ptr noundef nonnull align 4 dereferenceable(48) %76, i32 noundef 1, i32 noundef 1)
  %78 = load float, ptr %77, align 4, !tbaa !14
  %79 = load ptr, ptr %3, align 8, !tbaa !22
  %80 = call noundef nonnull align 4 dereferenceable(4) ptr @_ZNK24btInverseDynamicsBullet35mat33clEii(ptr noundef nonnull align 4 dereferenceable(48) %79, i32 noundef 2, i32 noundef 0)
  %81 = load float, ptr %80, align 4, !tbaa !14
  %82 = fmul float %78, %81
  %83 = fneg float %82
  %84 = call float @llvm.fmuladd.f32(float %72, float %75, float %83)
  %85 = call float @llvm.fmuladd.f32(float %69, float %84, float %66)
  %86 = fcmp olt float %85, 0.000000e+00
  br i1 %86, label %87, label %88

87:                                               ; preds = %27
  store i1 false, ptr %2, align 1
  br label %89

88:                                               ; preds = %27
  store i1 true, ptr %2, align 1
  br label %89

89:                                               ; preds = %88, %87, %26, %8
  %90 = load i1, ptr %2, align 1
  ret i1 %90
}