; Function Attrs: mustprogress nofree norecurse nosync nounwind willreturn memory(argmem: read) uwtable
define dso_local noundef zeroext i1 @_ZN24btInverseDynamicsBullet322isPositiveSemiDefiniteERKNS_5mat33E(ptr noundef nonnull readonly align 4 captures(none) dereferenceable(48) %0) local_unnamed_addr #4 {
  %2 = load float, ptr %0, align 4, !tbaa !4
  %3 = fcmp olt float %2, 0.000000e+00
  br i1 %3, label %39, label %4

4:                                                ; preds = %1
  %5 = getelementptr inbounds nuw i8, ptr %0, i64 16
  %6 = getelementptr inbounds nuw i8, ptr %0, i64 20
  %7 = load float, ptr %6, align 4, !tbaa !4
  %8 = getelementptr inbounds nuw i8, ptr %0, i64 4
  %9 = load float, ptr %8, align 4, !tbaa !4
  %10 = load float, ptr %5, align 4, !tbaa !4
  %11 = fneg float %10
  %12 = fmul float %9, %11
  %13 = tail call float @llvm.fmuladd.f32(float %2, float %7, float %12)
  %14 = fcmp olt float %13, 0.000000e+00
  br i1 %14, label %39, label %15

15:                                               ; preds = %4
  %16 = getelementptr inbounds nuw i8, ptr %0, i64 32
  %17 = getelementptr inbounds nuw i8, ptr %0, i64 40
  %18 = load float, ptr %17, align 4, !tbaa !4
  %19 = getelementptr inbounds nuw i8, ptr %0, i64 24
  %20 = load float, ptr %19, align 4, !tbaa !4
  %21 = getelementptr inbounds nuw i8, ptr %0, i64 36
  %22 = load float, ptr %21, align 4, !tbaa !4
  %23 = fneg float %22
  %24 = fmul float %20, %23
  %25 = tail call float @llvm.fmuladd.f32(float %7, float %18, float %24)
  %26 = load float, ptr %16, align 4, !tbaa !4
  %27 = fneg float %26
  %28 = fmul float %20, %27
  %29 = tail call float @llvm.fmuladd.f32(float %10, float %18, float %28)
  %30 = fneg float %29
  %31 = fmul float %9, %30
  %32 = tail call float @llvm.fmuladd.f32(float %2, float %25, float %31)
  %33 = getelementptr inbounds nuw i8, ptr %0, i64 8
  %34 = load float, ptr %33, align 4, !tbaa !4
  %35 = fmul float %7, %27
  %36 = tail call float @llvm.fmuladd.f32(float %10, float %22, float %35)
  %37 = tail call float @llvm.fmuladd.f32(float %34, float %36, float %32)
  %38 = fcmp uge float %37, 0.000000e+00
  br label %39

39:                                               ; preds = %15, %4, %1
  %.0 = phi i1 [ false, %1 ], [ false, %4 ], [ %38, %15 ]
  ret i1 %.0
}